ARM GAS  C:\Users\lthw148\AppData\Local\Temp\ccG32gH2.s 			page 1


   1              		.syntax unified
   2              		.cpu cortex-m3
   3              		.fpu softvfp
   4              		.eabi_attribute 20, 1
   5              		.eabi_attribute 21, 1
   6              		.eabi_attribute 23, 3
   7              		.eabi_attribute 24, 1
   8              		.eabi_attribute 25, 1
   9              		.eabi_attribute 26, 1
  10              		.eabi_attribute 30, 1
  11              		.eabi_attribute 34, 1
  12              		.eabi_attribute 18, 4
  13              		.thumb
  14              		.syntax unified
  15              		.file	"cyfitter_cfg.c"
  16              		.text
  17              	.Ltext0:
  18              		.cfi_sections	.debug_frame
  19              		.section	.text.cfg_write_bytes32,"ax",%progbits
  20              		.align	2
  21              		.thumb
  22              		.thumb_func
  23              		.type	cfg_write_bytes32, %function
  24              	cfg_write_bytes32:
  25              	.LFB3:
  26              		.file 1 "Generated_Source\\PSoC5\\cyfitter_cfg.c"
   1:Generated_Source\PSoC5/cyfitter_cfg.c **** 
   2:Generated_Source\PSoC5/cyfitter_cfg.c **** /*******************************************************************************
   3:Generated_Source\PSoC5/cyfitter_cfg.c **** * File Name: cyfitter_cfg.c
   4:Generated_Source\PSoC5/cyfitter_cfg.c **** * 
   5:Generated_Source\PSoC5/cyfitter_cfg.c **** * PSoC Creator  4.2
   6:Generated_Source\PSoC5/cyfitter_cfg.c **** *
   7:Generated_Source\PSoC5/cyfitter_cfg.c **** * Description:
   8:Generated_Source\PSoC5/cyfitter_cfg.c **** * This file contains device initialization code.
   9:Generated_Source\PSoC5/cyfitter_cfg.c **** * Except for the user defined sections in CyClockStartupError(), this file should not be modified.
  10:Generated_Source\PSoC5/cyfitter_cfg.c **** * This file is automatically generated by PSoC Creator.
  11:Generated_Source\PSoC5/cyfitter_cfg.c **** *
  12:Generated_Source\PSoC5/cyfitter_cfg.c **** ********************************************************************************
  13:Generated_Source\PSoC5/cyfitter_cfg.c **** * Copyright (c) 2007-2018 Cypress Semiconductor.  All rights reserved.
  14:Generated_Source\PSoC5/cyfitter_cfg.c **** * You may use this file only in accordance with the license, terms, conditions, 
  15:Generated_Source\PSoC5/cyfitter_cfg.c **** * disclaimers, and limitations in the end user license agreement accompanying 
  16:Generated_Source\PSoC5/cyfitter_cfg.c **** * the software package with which this file was provided.
  17:Generated_Source\PSoC5/cyfitter_cfg.c **** ********************************************************************************/
  18:Generated_Source\PSoC5/cyfitter_cfg.c **** 
  19:Generated_Source\PSoC5/cyfitter_cfg.c **** #include <string.h>
  20:Generated_Source\PSoC5/cyfitter_cfg.c **** #include "cytypes.h"
  21:Generated_Source\PSoC5/cyfitter_cfg.c **** #include "cydevice_trm.h"
  22:Generated_Source\PSoC5/cyfitter_cfg.c **** #include "cyfitter.h"
  23:Generated_Source\PSoC5/cyfitter_cfg.c **** #include "CyLib.h"
  24:Generated_Source\PSoC5/cyfitter_cfg.c **** #include "cyfitter_cfg.h"
  25:Generated_Source\PSoC5/cyfitter_cfg.c **** #include "cyapicallbacks.h"
  26:Generated_Source\PSoC5/cyfitter_cfg.c **** 
  27:Generated_Source\PSoC5/cyfitter_cfg.c **** 
  28:Generated_Source\PSoC5/cyfitter_cfg.c **** #if defined(__GNUC__) || defined(__ARMCC_VERSION)
  29:Generated_Source\PSoC5/cyfitter_cfg.c ****     #define CYPACKED 
  30:Generated_Source\PSoC5/cyfitter_cfg.c ****     #define CYPACKED_ATTR __attribute__ ((packed))
  31:Generated_Source\PSoC5/cyfitter_cfg.c ****     #define CYALIGNED __attribute__ ((aligned))
ARM GAS  C:\Users\lthw148\AppData\Local\Temp\ccG32gH2.s 			page 2


  32:Generated_Source\PSoC5/cyfitter_cfg.c ****     #define CY_CFG_UNUSED __attribute__ ((unused))
  33:Generated_Source\PSoC5/cyfitter_cfg.c ****     #ifndef CY_CFG_SECTION
  34:Generated_Source\PSoC5/cyfitter_cfg.c ****         #define CY_CFG_SECTION __attribute__ ((section(".psocinit")))
  35:Generated_Source\PSoC5/cyfitter_cfg.c ****     #endif
  36:Generated_Source\PSoC5/cyfitter_cfg.c ****     
  37:Generated_Source\PSoC5/cyfitter_cfg.c ****     #if defined(__ARMCC_VERSION)
  38:Generated_Source\PSoC5/cyfitter_cfg.c ****         #define CY_CFG_MEMORY_BARRIER() __memory_changed()
  39:Generated_Source\PSoC5/cyfitter_cfg.c ****     #else
  40:Generated_Source\PSoC5/cyfitter_cfg.c ****         #define CY_CFG_MEMORY_BARRIER() __sync_synchronize()
  41:Generated_Source\PSoC5/cyfitter_cfg.c ****     #endif
  42:Generated_Source\PSoC5/cyfitter_cfg.c ****     
  43:Generated_Source\PSoC5/cyfitter_cfg.c **** #elif defined(__ICCARM__)
  44:Generated_Source\PSoC5/cyfitter_cfg.c ****     #include <intrinsics.h>
  45:Generated_Source\PSoC5/cyfitter_cfg.c **** 
  46:Generated_Source\PSoC5/cyfitter_cfg.c ****     #define CYPACKED __packed
  47:Generated_Source\PSoC5/cyfitter_cfg.c ****     #define CYPACKED_ATTR 
  48:Generated_Source\PSoC5/cyfitter_cfg.c ****     #define CYALIGNED _Pragma("data_alignment=4")
  49:Generated_Source\PSoC5/cyfitter_cfg.c ****     #define CY_CFG_UNUSED _Pragma("diag_suppress=Pe177")
  50:Generated_Source\PSoC5/cyfitter_cfg.c ****     #define CY_CFG_SECTION _Pragma("location=\".psocinit\"")
  51:Generated_Source\PSoC5/cyfitter_cfg.c ****     
  52:Generated_Source\PSoC5/cyfitter_cfg.c ****     #define CY_CFG_MEMORY_BARRIER() __DMB()
  53:Generated_Source\PSoC5/cyfitter_cfg.c ****     
  54:Generated_Source\PSoC5/cyfitter_cfg.c **** #else
  55:Generated_Source\PSoC5/cyfitter_cfg.c ****     #error Unsupported toolchain
  56:Generated_Source\PSoC5/cyfitter_cfg.c **** #endif
  57:Generated_Source\PSoC5/cyfitter_cfg.c **** 
  58:Generated_Source\PSoC5/cyfitter_cfg.c **** #ifndef CYCODE
  59:Generated_Source\PSoC5/cyfitter_cfg.c ****     #define CYCODE
  60:Generated_Source\PSoC5/cyfitter_cfg.c **** #endif
  61:Generated_Source\PSoC5/cyfitter_cfg.c **** #ifndef CYDATA
  62:Generated_Source\PSoC5/cyfitter_cfg.c ****     #define CYDATA
  63:Generated_Source\PSoC5/cyfitter_cfg.c **** #endif
  64:Generated_Source\PSoC5/cyfitter_cfg.c **** #ifndef CYFAR
  65:Generated_Source\PSoC5/cyfitter_cfg.c ****     #define CYFAR
  66:Generated_Source\PSoC5/cyfitter_cfg.c **** #endif
  67:Generated_Source\PSoC5/cyfitter_cfg.c **** #ifndef CYXDATA
  68:Generated_Source\PSoC5/cyfitter_cfg.c ****     #define CYXDATA
  69:Generated_Source\PSoC5/cyfitter_cfg.c **** #endif
  70:Generated_Source\PSoC5/cyfitter_cfg.c **** 
  71:Generated_Source\PSoC5/cyfitter_cfg.c **** 
  72:Generated_Source\PSoC5/cyfitter_cfg.c **** CY_CFG_UNUSED
  73:Generated_Source\PSoC5/cyfitter_cfg.c **** static void CYMEMZERO(void *s, size_t n);
  74:Generated_Source\PSoC5/cyfitter_cfg.c **** CY_CFG_UNUSED
  75:Generated_Source\PSoC5/cyfitter_cfg.c **** static void CYMEMZERO(void *s, size_t n)
  76:Generated_Source\PSoC5/cyfitter_cfg.c **** {
  77:Generated_Source\PSoC5/cyfitter_cfg.c **** 	(void)memset(s, 0, n);
  78:Generated_Source\PSoC5/cyfitter_cfg.c **** }
  79:Generated_Source\PSoC5/cyfitter_cfg.c **** CY_CFG_UNUSED
  80:Generated_Source\PSoC5/cyfitter_cfg.c **** static void CYCONFIGCPY(void *dest, const void *src, size_t n);
  81:Generated_Source\PSoC5/cyfitter_cfg.c **** CY_CFG_UNUSED
  82:Generated_Source\PSoC5/cyfitter_cfg.c **** static void CYCONFIGCPY(void *dest, const void *src, size_t n)
  83:Generated_Source\PSoC5/cyfitter_cfg.c **** {
  84:Generated_Source\PSoC5/cyfitter_cfg.c **** 	(void)memcpy(dest, src, n);
  85:Generated_Source\PSoC5/cyfitter_cfg.c **** }
  86:Generated_Source\PSoC5/cyfitter_cfg.c **** CY_CFG_UNUSED
  87:Generated_Source\PSoC5/cyfitter_cfg.c **** static void CYCONFIGCPYCODE(void *dest, const void *src, size_t n);
  88:Generated_Source\PSoC5/cyfitter_cfg.c **** CY_CFG_UNUSED
ARM GAS  C:\Users\lthw148\AppData\Local\Temp\ccG32gH2.s 			page 3


  89:Generated_Source\PSoC5/cyfitter_cfg.c **** static void CYCONFIGCPYCODE(void *dest, const void *src, size_t n)
  90:Generated_Source\PSoC5/cyfitter_cfg.c **** {
  91:Generated_Source\PSoC5/cyfitter_cfg.c **** 	(void)memcpy(dest, src, n);
  92:Generated_Source\PSoC5/cyfitter_cfg.c **** }
  93:Generated_Source\PSoC5/cyfitter_cfg.c **** 
  94:Generated_Source\PSoC5/cyfitter_cfg.c **** 
  95:Generated_Source\PSoC5/cyfitter_cfg.c **** 
  96:Generated_Source\PSoC5/cyfitter_cfg.c **** 
  97:Generated_Source\PSoC5/cyfitter_cfg.c **** /* Clock startup error codes                                                   */
  98:Generated_Source\PSoC5/cyfitter_cfg.c **** #define CYCLOCKSTART_NO_ERROR    0u
  99:Generated_Source\PSoC5/cyfitter_cfg.c **** #define CYCLOCKSTART_XTAL_ERROR  1u
 100:Generated_Source\PSoC5/cyfitter_cfg.c **** #define CYCLOCKSTART_32KHZ_ERROR 2u
 101:Generated_Source\PSoC5/cyfitter_cfg.c **** #define CYCLOCKSTART_PLL_ERROR   3u
 102:Generated_Source\PSoC5/cyfitter_cfg.c **** #define CYCLOCKSTART_FLL_ERROR   4u
 103:Generated_Source\PSoC5/cyfitter_cfg.c **** #define CYCLOCKSTART_WCO_ERROR   5u
 104:Generated_Source\PSoC5/cyfitter_cfg.c **** 
 105:Generated_Source\PSoC5/cyfitter_cfg.c **** 
 106:Generated_Source\PSoC5/cyfitter_cfg.c **** #ifdef CY_NEED_CYCLOCKSTARTUPERROR
 107:Generated_Source\PSoC5/cyfitter_cfg.c **** /*******************************************************************************
 108:Generated_Source\PSoC5/cyfitter_cfg.c **** * Function Name: CyClockStartupError
 109:Generated_Source\PSoC5/cyfitter_cfg.c **** ********************************************************************************
 110:Generated_Source\PSoC5/cyfitter_cfg.c **** * Summary:
 111:Generated_Source\PSoC5/cyfitter_cfg.c **** *  If an error is encountered during clock configuration (crystal startup error,
 112:Generated_Source\PSoC5/cyfitter_cfg.c **** *  PLL lock error, etc.), the system will end up here.  Unless reimplemented by
 113:Generated_Source\PSoC5/cyfitter_cfg.c **** *  the customer, this function will stop in an infinite loop.
 114:Generated_Source\PSoC5/cyfitter_cfg.c **** *
 115:Generated_Source\PSoC5/cyfitter_cfg.c **** * Parameters:
 116:Generated_Source\PSoC5/cyfitter_cfg.c **** *   void
 117:Generated_Source\PSoC5/cyfitter_cfg.c **** *
 118:Generated_Source\PSoC5/cyfitter_cfg.c **** * Return:
 119:Generated_Source\PSoC5/cyfitter_cfg.c **** *   void
 120:Generated_Source\PSoC5/cyfitter_cfg.c **** *
 121:Generated_Source\PSoC5/cyfitter_cfg.c **** *******************************************************************************/
 122:Generated_Source\PSoC5/cyfitter_cfg.c **** CY_CFG_UNUSED
 123:Generated_Source\PSoC5/cyfitter_cfg.c **** static void CyClockStartupError(uint8 errorCode);
 124:Generated_Source\PSoC5/cyfitter_cfg.c **** CY_CFG_UNUSED
 125:Generated_Source\PSoC5/cyfitter_cfg.c **** static void CyClockStartupError(uint8 errorCode)
 126:Generated_Source\PSoC5/cyfitter_cfg.c **** {
 127:Generated_Source\PSoC5/cyfitter_cfg.c ****     /* To remove the compiler warning if errorCode not used.                */
 128:Generated_Source\PSoC5/cyfitter_cfg.c ****     errorCode = errorCode;
 129:Generated_Source\PSoC5/cyfitter_cfg.c **** 
 130:Generated_Source\PSoC5/cyfitter_cfg.c ****     /* If we have a clock startup error (bad MHz crystal, PLL lock, etc.),  */
 131:Generated_Source\PSoC5/cyfitter_cfg.c ****     /* we will end up here to allow the customer to implement something to  */
 132:Generated_Source\PSoC5/cyfitter_cfg.c ****     /* deal with the clock condition.                                       */
 133:Generated_Source\PSoC5/cyfitter_cfg.c **** 
 134:Generated_Source\PSoC5/cyfitter_cfg.c **** #ifdef CY_CFG_CLOCK_STARTUP_ERROR_CALLBACK
 135:Generated_Source\PSoC5/cyfitter_cfg.c ****     CY_CFG_Clock_Startup_ErrorCallback();
 136:Generated_Source\PSoC5/cyfitter_cfg.c **** #else
 137:Generated_Source\PSoC5/cyfitter_cfg.c ****     /*  If not using CY_CFG_CLOCK_STARTUP_ERROR_CALLBACK, place your clock startup code here. */
 138:Generated_Source\PSoC5/cyfitter_cfg.c ****     /* `#START CyClockStartupError` */
 139:Generated_Source\PSoC5/cyfitter_cfg.c **** 
 140:Generated_Source\PSoC5/cyfitter_cfg.c ****     /* If we have a clock startup error (bad MHz crystal, PLL lock, etc.),  */
 141:Generated_Source\PSoC5/cyfitter_cfg.c ****     /* we will end up here to allow the customer to implement something to  */
 142:Generated_Source\PSoC5/cyfitter_cfg.c ****     /* deal with the clock condition.                                       */
 143:Generated_Source\PSoC5/cyfitter_cfg.c **** 
 144:Generated_Source\PSoC5/cyfitter_cfg.c ****     /* `#END` */
 145:Generated_Source\PSoC5/cyfitter_cfg.c **** 
ARM GAS  C:\Users\lthw148\AppData\Local\Temp\ccG32gH2.s 			page 4


 146:Generated_Source\PSoC5/cyfitter_cfg.c ****     while(1) {}
 147:Generated_Source\PSoC5/cyfitter_cfg.c **** #endif /* CY_CFG_CLOCK_STARTUP_ERROR_CALLBACK */
 148:Generated_Source\PSoC5/cyfitter_cfg.c **** }
 149:Generated_Source\PSoC5/cyfitter_cfg.c **** #endif
 150:Generated_Source\PSoC5/cyfitter_cfg.c **** 
 151:Generated_Source\PSoC5/cyfitter_cfg.c **** #define CY_CFG_BASE_ADDR_COUNT 6u
 152:Generated_Source\PSoC5/cyfitter_cfg.c **** CYPACKED typedef struct
 153:Generated_Source\PSoC5/cyfitter_cfg.c **** {
 154:Generated_Source\PSoC5/cyfitter_cfg.c **** 	uint8 offset;
 155:Generated_Source\PSoC5/cyfitter_cfg.c **** 	uint8 value;
 156:Generated_Source\PSoC5/cyfitter_cfg.c **** } CYPACKED_ATTR cy_cfg_addrvalue_t;
 157:Generated_Source\PSoC5/cyfitter_cfg.c **** 
 158:Generated_Source\PSoC5/cyfitter_cfg.c **** #define cy_cfg_addr_table ((const uint32 CYFAR *)0x48000000u)
 159:Generated_Source\PSoC5/cyfitter_cfg.c **** #define cy_cfg_data_table ((const cy_cfg_addrvalue_t CYFAR *)0x48000018u)
 160:Generated_Source\PSoC5/cyfitter_cfg.c **** 
 161:Generated_Source\PSoC5/cyfitter_cfg.c **** /* IOPINS0_1 Address: CYREG_PRT1_DM0 Size (bytes): 8 */
 162:Generated_Source\PSoC5/cyfitter_cfg.c **** #define BS_IOPINS0_1_VAL ((const uint8 CYFAR *)0x4800004Cu)
 163:Generated_Source\PSoC5/cyfitter_cfg.c **** 
 164:Generated_Source\PSoC5/cyfitter_cfg.c **** /* IOPINS0_2 Address: CYREG_PRT2_DM0 Size (bytes): 8 */
 165:Generated_Source\PSoC5/cyfitter_cfg.c **** #define BS_IOPINS0_2_VAL ((const uint8 CYFAR *)0x48000054u)
 166:Generated_Source\PSoC5/cyfitter_cfg.c **** 
 167:Generated_Source\PSoC5/cyfitter_cfg.c **** 
 168:Generated_Source\PSoC5/cyfitter_cfg.c **** /*******************************************************************************
 169:Generated_Source\PSoC5/cyfitter_cfg.c **** * Function Name: cfg_write_bytes32
 170:Generated_Source\PSoC5/cyfitter_cfg.c **** ********************************************************************************
 171:Generated_Source\PSoC5/cyfitter_cfg.c **** * Summary:
 172:Generated_Source\PSoC5/cyfitter_cfg.c **** *  This function is used for setting up the chip configuration areas that
 173:Generated_Source\PSoC5/cyfitter_cfg.c **** *  contain relatively sparse data.
 174:Generated_Source\PSoC5/cyfitter_cfg.c **** *
 175:Generated_Source\PSoC5/cyfitter_cfg.c **** * Parameters:
 176:Generated_Source\PSoC5/cyfitter_cfg.c **** *   void
 177:Generated_Source\PSoC5/cyfitter_cfg.c **** *
 178:Generated_Source\PSoC5/cyfitter_cfg.c **** * Return:
 179:Generated_Source\PSoC5/cyfitter_cfg.c **** *   void
 180:Generated_Source\PSoC5/cyfitter_cfg.c **** *
 181:Generated_Source\PSoC5/cyfitter_cfg.c **** *******************************************************************************/
 182:Generated_Source\PSoC5/cyfitter_cfg.c **** static void cfg_write_bytes32(const uint32 addr_table[], const cy_cfg_addrvalue_t data_table[]);
 183:Generated_Source\PSoC5/cyfitter_cfg.c **** static void cfg_write_bytes32(const uint32 addr_table[], const cy_cfg_addrvalue_t data_table[])
 184:Generated_Source\PSoC5/cyfitter_cfg.c **** {
  27              		.loc 1 184 0
  28              		.cfi_startproc
  29              		@ args = 0, pretend = 0, frame = 0
  30              		@ frame_needed = 0, uses_anonymous_args = 0
  31              		@ link register save eliminated.
  32              	.LVL0:
  33 0000 F0B4     		push	{r4, r5, r6, r7}
  34              		.cfi_def_cfa_offset 16
  35              		.cfi_offset 4, -16
  36              		.cfi_offset 5, -12
  37              		.cfi_offset 6, -8
  38              		.cfi_offset 7, -4
  39              	.LVL1:
 185:Generated_Source\PSoC5/cyfitter_cfg.c **** 	/* For 32-bit little-endian architectures */
 186:Generated_Source\PSoC5/cyfitter_cfg.c **** 	uint32 i, j = 0u;
  40              		.loc 1 186 0
  41 0002 0022     		movs	r2, #0
 187:Generated_Source\PSoC5/cyfitter_cfg.c **** 	for (i = 0u; i < CY_CFG_BASE_ADDR_COUNT; i++)
ARM GAS  C:\Users\lthw148\AppData\Local\Temp\ccG32gH2.s 			page 5


  42              		.loc 1 187 0
  43 0004 1746     		mov	r7, r2
  44 0006 11E0     		b	.L2
  45              	.LVL2:
  46              	.L5:
  47              	.LBB2:
 188:Generated_Source\PSoC5/cyfitter_cfg.c **** 	{
 189:Generated_Source\PSoC5/cyfitter_cfg.c **** 		uint32 baseAddr = addr_table[i];
  48              		.loc 1 189 0
  49 0008 50F82760 		ldr	r6, [r0, r7, lsl #2]
  50              	.LVL3:
 190:Generated_Source\PSoC5/cyfitter_cfg.c **** 		uint8 count = (uint8)baseAddr;
  51              		.loc 1 190 0
  52 000c F3B2     		uxtb	r3, r6
  53              	.LVL4:
 191:Generated_Source\PSoC5/cyfitter_cfg.c **** 		baseAddr &= 0xFFFFFF00u;
  54              		.loc 1 191 0
  55 000e 26F0FF06 		bic	r6, r6, #255
  56              	.LVL5:
 192:Generated_Source\PSoC5/cyfitter_cfg.c **** 		while (count != 0u)
  57              		.loc 1 192 0
  58 0012 08E0     		b	.L3
  59              	.L4:
 193:Generated_Source\PSoC5/cyfitter_cfg.c **** 		{
 194:Generated_Source\PSoC5/cyfitter_cfg.c **** 			CY_SET_REG8((void *)(baseAddr + data_table[j].offset), data_table[j].value);
  60              		.loc 1 194 0
  61 0014 01EB4205 		add	r5, r1, r2, lsl #1
  62 0018 11F81240 		ldrb	r4, [r1, r2, lsl #1]	@ zero_extendqisi2
  63 001c 6D78     		ldrb	r5, [r5, #1]	@ zero_extendqisi2
  64 001e A555     		strb	r5, [r4, r6]
 195:Generated_Source\PSoC5/cyfitter_cfg.c **** 			j++;
  65              		.loc 1 195 0
  66 0020 0132     		adds	r2, r2, #1
  67              	.LVL6:
 196:Generated_Source\PSoC5/cyfitter_cfg.c **** 			count--;
  68              		.loc 1 196 0
  69 0022 013B     		subs	r3, r3, #1
  70              	.LVL7:
  71 0024 DBB2     		uxtb	r3, r3
  72              	.LVL8:
  73              	.L3:
 192:Generated_Source\PSoC5/cyfitter_cfg.c **** 		{
  74              		.loc 1 192 0
  75 0026 002B     		cmp	r3, #0
  76 0028 F4D1     		bne	.L4
  77              	.LBE2:
 187:Generated_Source\PSoC5/cyfitter_cfg.c **** 	{
  78              		.loc 1 187 0 discriminator 2
  79 002a 0137     		adds	r7, r7, #1
  80              	.LVL9:
  81              	.L2:
 187:Generated_Source\PSoC5/cyfitter_cfg.c **** 	{
  82              		.loc 1 187 0 is_stmt 0 discriminator 1
  83 002c 052F     		cmp	r7, #5
  84 002e EBD9     		bls	.L5
 197:Generated_Source\PSoC5/cyfitter_cfg.c **** 		}
 198:Generated_Source\PSoC5/cyfitter_cfg.c **** 	}
ARM GAS  C:\Users\lthw148\AppData\Local\Temp\ccG32gH2.s 			page 6


 199:Generated_Source\PSoC5/cyfitter_cfg.c **** }
  85              		.loc 1 199 0 is_stmt 1
  86 0030 F0BC     		pop	{r4, r5, r6, r7}
  87              		.cfi_restore 7
  88              		.cfi_restore 6
  89              		.cfi_restore 5
  90              		.cfi_restore 4
  91              		.cfi_def_cfa_offset 0
  92              	.LVL10:
  93 0032 7047     		bx	lr
  94              		.cfi_endproc
  95              	.LFE3:
  96              		.size	cfg_write_bytes32, .-cfg_write_bytes32
  97              		.section	.text.AnalogSetDefault,"ax",%progbits
  98              		.align	2
  99              		.thumb
 100              		.thumb_func
 101              		.type	AnalogSetDefault, %function
 102              	AnalogSetDefault:
 103              	.LFB5:
 200:Generated_Source\PSoC5/cyfitter_cfg.c **** 
 201:Generated_Source\PSoC5/cyfitter_cfg.c **** /*******************************************************************************
 202:Generated_Source\PSoC5/cyfitter_cfg.c **** * Function Name: ClockSetup
 203:Generated_Source\PSoC5/cyfitter_cfg.c **** ********************************************************************************
 204:Generated_Source\PSoC5/cyfitter_cfg.c **** *
 205:Generated_Source\PSoC5/cyfitter_cfg.c **** * Summary:
 206:Generated_Source\PSoC5/cyfitter_cfg.c **** *  Performs the initialization of all of the clocks in the device based on the
 207:Generated_Source\PSoC5/cyfitter_cfg.c **** *  settings in the Clock tab of the DWR.  This includes enabling the requested
 208:Generated_Source\PSoC5/cyfitter_cfg.c **** *  clocks and setting the necessary dividers to produce the desired frequency. 
 209:Generated_Source\PSoC5/cyfitter_cfg.c **** *
 210:Generated_Source\PSoC5/cyfitter_cfg.c **** * Parameters:
 211:Generated_Source\PSoC5/cyfitter_cfg.c **** *  void
 212:Generated_Source\PSoC5/cyfitter_cfg.c **** *
 213:Generated_Source\PSoC5/cyfitter_cfg.c **** * Return:
 214:Generated_Source\PSoC5/cyfitter_cfg.c **** *  void
 215:Generated_Source\PSoC5/cyfitter_cfg.c **** *
 216:Generated_Source\PSoC5/cyfitter_cfg.c **** *******************************************************************************/
 217:Generated_Source\PSoC5/cyfitter_cfg.c **** static void ClockSetup(void);
 218:Generated_Source\PSoC5/cyfitter_cfg.c **** static void ClockSetup(void)
 219:Generated_Source\PSoC5/cyfitter_cfg.c **** {
 220:Generated_Source\PSoC5/cyfitter_cfg.c **** 	uint32 timeout;
 221:Generated_Source\PSoC5/cyfitter_cfg.c **** 	uint8 pllLock;
 222:Generated_Source\PSoC5/cyfitter_cfg.c **** 
 223:Generated_Source\PSoC5/cyfitter_cfg.c **** 
 224:Generated_Source\PSoC5/cyfitter_cfg.c **** 	/* Configure Digital Clocks based on settings from Clock DWR */
 225:Generated_Source\PSoC5/cyfitter_cfg.c **** 	CY_SET_XTND_REG16((void CYFAR *)(CYREG_CLKDIST_DCFG0_CFG0), 0x0BB7u);
 226:Generated_Source\PSoC5/cyfitter_cfg.c **** 	CY_SET_XTND_REG8((void CYFAR *)(CYREG_CLKDIST_DCFG0_CFG0 + 0x2u), 0x19u);
 227:Generated_Source\PSoC5/cyfitter_cfg.c **** 	CY_SET_XTND_REG16((void CYFAR *)(CYREG_CLKDIST_DCFG1_CFG0), 0x0BB7u);
 228:Generated_Source\PSoC5/cyfitter_cfg.c **** 	CY_SET_XTND_REG8((void CYFAR *)(CYREG_CLKDIST_DCFG1_CFG0 + 0x2u), 0x19u);
 229:Generated_Source\PSoC5/cyfitter_cfg.c **** 
 230:Generated_Source\PSoC5/cyfitter_cfg.c **** 	/* Configure ILO based on settings from Clock DWR */
 231:Generated_Source\PSoC5/cyfitter_cfg.c **** 	CY_SET_XTND_REG8((void CYFAR *)(CYREG_SLOWCLK_ILO_CR0), 0x06u);
 232:Generated_Source\PSoC5/cyfitter_cfg.c **** 	CY_SET_XTND_REG8((void CYFAR *)(CYREG_CLKDIST_CR), 0x08u);
 233:Generated_Source\PSoC5/cyfitter_cfg.c **** 
 234:Generated_Source\PSoC5/cyfitter_cfg.c **** 	/* Configure IMO based on settings from Clock DWR */
 235:Generated_Source\PSoC5/cyfitter_cfg.c **** 	CY_SET_XTND_REG8((void CYFAR *)(CYREG_FASTCLK_IMO_CR), 0x03u);
 236:Generated_Source\PSoC5/cyfitter_cfg.c **** 	CY_SET_XTND_REG8((void CYFAR *)(CYREG_IMO_TR1), (CY_GET_XTND_REG8((void CYFAR *)CYREG_FLSHID_CUST_
ARM GAS  C:\Users\lthw148\AppData\Local\Temp\ccG32gH2.s 			page 7


 237:Generated_Source\PSoC5/cyfitter_cfg.c **** 
 238:Generated_Source\PSoC5/cyfitter_cfg.c **** 	/* Configure Bus/Master Clock based on settings from Clock DWR */
 239:Generated_Source\PSoC5/cyfitter_cfg.c **** 	CY_SET_XTND_REG16((void CYFAR *)(CYREG_CLKDIST_MSTR0), 0x0000u);
 240:Generated_Source\PSoC5/cyfitter_cfg.c **** 
 241:Generated_Source\PSoC5/cyfitter_cfg.c **** 	/* Configure PLL based on settings from Clock DWR */
 242:Generated_Source\PSoC5/cyfitter_cfg.c **** 	CY_SET_XTND_REG16((void CYFAR *)(CYREG_FASTCLK_PLL_P), 0x0008u);
 243:Generated_Source\PSoC5/cyfitter_cfg.c **** 	CY_SET_XTND_REG16((void CYFAR *)(CYREG_FASTCLK_PLL_CFG0), 0x1251u);
 244:Generated_Source\PSoC5/cyfitter_cfg.c **** 	/* Wait up to 250us for the PLL to lock */
 245:Generated_Source\PSoC5/cyfitter_cfg.c **** 	pllLock = 0u;
 246:Generated_Source\PSoC5/cyfitter_cfg.c **** 	for (timeout = 250u / 10u; (timeout > 0u) && (pllLock != 0x03u); timeout--)
 247:Generated_Source\PSoC5/cyfitter_cfg.c **** 	{ 
 248:Generated_Source\PSoC5/cyfitter_cfg.c **** 		pllLock = 0x03u & ((uint8)((uint8)pllLock << 1) | ((CY_GET_XTND_REG8((void CYFAR *)CYREG_FASTCLK_
 249:Generated_Source\PSoC5/cyfitter_cfg.c **** 		CyDelayCycles(10u * 48u); /* Delay 10us based on 48MHz clock */
 250:Generated_Source\PSoC5/cyfitter_cfg.c **** 	}
 251:Generated_Source\PSoC5/cyfitter_cfg.c **** 	CY_SET_XTND_REG8((void CYFAR *)(CYREG_CLKDIST_MSTR0), 0x07u);
 252:Generated_Source\PSoC5/cyfitter_cfg.c **** 	CY_SET_XTND_REG8((void CYFAR *)(CYREG_CLKDIST_BCFG0), 0x00u);
 253:Generated_Source\PSoC5/cyfitter_cfg.c **** 	CY_SET_XTND_REG8((void CYFAR *)(CYREG_CLKDIST_BCFG2), 0x48u);
 254:Generated_Source\PSoC5/cyfitter_cfg.c **** 	CY_SET_XTND_REG8((void CYFAR *)(CYREG_CLKDIST_MSTR0), 0x00u);
 255:Generated_Source\PSoC5/cyfitter_cfg.c **** 	CY_SET_XTND_REG8((void CYFAR *)(CYREG_CLKDIST_LD), 0x02u);
 256:Generated_Source\PSoC5/cyfitter_cfg.c **** 
 257:Generated_Source\PSoC5/cyfitter_cfg.c **** 	CY_SET_XTND_REG8((void CYFAR *)(CYREG_PM_ACT_CFG2), ((CY_GET_XTND_REG8((void CYFAR *)CYREG_PM_ACT_
 258:Generated_Source\PSoC5/cyfitter_cfg.c **** }
 259:Generated_Source\PSoC5/cyfitter_cfg.c **** 
 260:Generated_Source\PSoC5/cyfitter_cfg.c **** 
 261:Generated_Source\PSoC5/cyfitter_cfg.c **** /* Analog API Functions */
 262:Generated_Source\PSoC5/cyfitter_cfg.c **** 
 263:Generated_Source\PSoC5/cyfitter_cfg.c **** 
 264:Generated_Source\PSoC5/cyfitter_cfg.c **** /*******************************************************************************
 265:Generated_Source\PSoC5/cyfitter_cfg.c **** * Function Name: AnalogSetDefault
 266:Generated_Source\PSoC5/cyfitter_cfg.c **** ********************************************************************************
 267:Generated_Source\PSoC5/cyfitter_cfg.c **** *
 268:Generated_Source\PSoC5/cyfitter_cfg.c **** * Summary:
 269:Generated_Source\PSoC5/cyfitter_cfg.c **** *  Sets up the analog portions of the chip to default values based on chip
 270:Generated_Source\PSoC5/cyfitter_cfg.c **** *  configuration options from the project.
 271:Generated_Source\PSoC5/cyfitter_cfg.c **** *
 272:Generated_Source\PSoC5/cyfitter_cfg.c **** * Parameters:
 273:Generated_Source\PSoC5/cyfitter_cfg.c **** *  void
 274:Generated_Source\PSoC5/cyfitter_cfg.c **** *
 275:Generated_Source\PSoC5/cyfitter_cfg.c **** * Return:
 276:Generated_Source\PSoC5/cyfitter_cfg.c **** *  void
 277:Generated_Source\PSoC5/cyfitter_cfg.c **** *
 278:Generated_Source\PSoC5/cyfitter_cfg.c **** *******************************************************************************/
 279:Generated_Source\PSoC5/cyfitter_cfg.c **** static void AnalogSetDefault(void);
 280:Generated_Source\PSoC5/cyfitter_cfg.c **** static void AnalogSetDefault(void)
 281:Generated_Source\PSoC5/cyfitter_cfg.c **** {
 104              		.loc 1 281 0
 105              		.cfi_startproc
 106              		@ args = 0, pretend = 0, frame = 0
 107              		@ frame_needed = 0, uses_anonymous_args = 0
 108              		@ link register save eliminated.
 282:Generated_Source\PSoC5/cyfitter_cfg.c **** 	uint8 bg_xover_inl_trim = CY_GET_XTND_REG8((void CYFAR *)(CYREG_FLSHID_MFG_CFG_BG_XOVER_INL_TRIM +
 109              		.loc 1 282 0
 110 0000 064B     		ldr	r3, .L8
 111 0002 1B78     		ldrb	r3, [r3]	@ zero_extendqisi2
 112 0004 DBB2     		uxtb	r3, r3
 113              	.LVL11:
 283:Generated_Source\PSoC5/cyfitter_cfg.c **** 	CY_SET_XTND_REG8((void CYFAR *)(CYREG_BG_DFT0), (bg_xover_inl_trim & 0x07u));
ARM GAS  C:\Users\lthw148\AppData\Local\Temp\ccG32gH2.s 			page 8


 114              		.loc 1 283 0
 115 0006 03F00701 		and	r1, r3, #7
 116 000a 054A     		ldr	r2, .L8+4
 117 000c 1170     		strb	r1, [r2]
 284:Generated_Source\PSoC5/cyfitter_cfg.c **** 	CY_SET_XTND_REG8((void CYFAR *)(CYREG_BG_DFT1), ((bg_xover_inl_trim >> 4) & 0x0Fu));
 118              		.loc 1 284 0
 119 000e 1B09     		lsrs	r3, r3, #4
 120              	.LVL12:
 121 0010 0132     		adds	r2, r2, #1
 122 0012 1370     		strb	r3, [r2]
 285:Generated_Source\PSoC5/cyfitter_cfg.c **** 	CY_SET_XTND_REG8((void CYFAR *)CYREG_PUMP_CR0, 0x44u);
 123              		.loc 1 285 0
 124 0014 4422     		movs	r2, #68
 125 0016 034B     		ldr	r3, .L8+8
 126 0018 1A70     		strb	r2, [r3]
 127 001a 7047     		bx	lr
 128              	.L9:
 129              		.align	2
 130              	.L8:
 131 001c CF010049 		.word	1224737231
 132 0020 6E580040 		.word	1073764462
 133 0024 76580040 		.word	1073764470
 134              		.cfi_endproc
 135              	.LFE5:
 136              		.size	AnalogSetDefault, .-AnalogSetDefault
 137              		.section	.text.CYMEMZERO,"ax",%progbits
 138              		.align	2
 139              		.thumb
 140              		.thumb_func
 141              		.type	CYMEMZERO, %function
 142              	CYMEMZERO:
 143              	.LFB0:
  76:Generated_Source\PSoC5/cyfitter_cfg.c **** 	(void)memset(s, 0, n);
 144              		.loc 1 76 0
 145              		.cfi_startproc
 146              		@ args = 0, pretend = 0, frame = 0
 147              		@ frame_needed = 0, uses_anonymous_args = 0
 148              	.LVL13:
 149 0000 08B5     		push	{r3, lr}
 150              		.cfi_def_cfa_offset 8
 151              		.cfi_offset 3, -8
 152              		.cfi_offset 14, -4
  77:Generated_Source\PSoC5/cyfitter_cfg.c **** }
 153              		.loc 1 77 0
 154 0002 0A46     		mov	r2, r1
 155 0004 0021     		movs	r1, #0
 156              	.LVL14:
 157 0006 FFF7FEFF 		bl	memset
 158              	.LVL15:
 159 000a 08BD     		pop	{r3, pc}
 160              		.cfi_endproc
 161              	.LFE0:
 162              		.size	CYMEMZERO, .-CYMEMZERO
 163              		.section	.text.ClockSetup,"ax",%progbits
 164              		.align	2
 165              		.thumb
 166              		.thumb_func
ARM GAS  C:\Users\lthw148\AppData\Local\Temp\ccG32gH2.s 			page 9


 167              		.type	ClockSetup, %function
 168              	ClockSetup:
 169              	.LFB4:
 219:Generated_Source\PSoC5/cyfitter_cfg.c **** 	uint32 timeout;
 170              		.loc 1 219 0
 171              		.cfi_startproc
 172              		@ args = 0, pretend = 0, frame = 0
 173              		@ frame_needed = 0, uses_anonymous_args = 0
 174 0000 38B5     		push	{r3, r4, r5, lr}
 175              		.cfi_def_cfa_offset 16
 176              		.cfi_offset 3, -16
 177              		.cfi_offset 4, -12
 178              		.cfi_offset 5, -8
 179              		.cfi_offset 14, -4
 225:Generated_Source\PSoC5/cyfitter_cfg.c **** 	CY_SET_XTND_REG8((void CYFAR *)(CYREG_CLKDIST_DCFG0_CFG0 + 0x2u), 0x19u);
 180              		.loc 1 225 0
 181 0002 40F6B733 		movw	r3, #2999
 182 0006 244A     		ldr	r2, .L17
 183 0008 1380     		strh	r3, [r2]	@ movhi
 226:Generated_Source\PSoC5/cyfitter_cfg.c **** 	CY_SET_XTND_REG16((void CYFAR *)(CYREG_CLKDIST_DCFG1_CFG0), 0x0BB7u);
 184              		.loc 1 226 0
 185 000a 1925     		movs	r5, #25
 186 000c 0232     		adds	r2, r2, #2
 187 000e 1570     		strb	r5, [r2]
 227:Generated_Source\PSoC5/cyfitter_cfg.c **** 	CY_SET_XTND_REG8((void CYFAR *)(CYREG_CLKDIST_DCFG1_CFG0 + 0x2u), 0x19u);
 188              		.loc 1 227 0
 189 0010 0232     		adds	r2, r2, #2
 190 0012 1380     		strh	r3, [r2]	@ movhi
 228:Generated_Source\PSoC5/cyfitter_cfg.c **** 
 191              		.loc 1 228 0
 192 0014 214B     		ldr	r3, .L17+4
 193 0016 1D70     		strb	r5, [r3]
 231:Generated_Source\PSoC5/cyfitter_cfg.c **** 	CY_SET_XTND_REG8((void CYFAR *)(CYREG_CLKDIST_CR), 0x08u);
 194              		.loc 1 231 0
 195 0018 0622     		movs	r2, #6
 196 001a 03F27A23 		addw	r3, r3, #634
 197 001e 1A70     		strb	r2, [r3]
 232:Generated_Source\PSoC5/cyfitter_cfg.c **** 
 198              		.loc 1 232 0
 199 0020 0822     		movs	r2, #8
 200 0022 4FF04023 		mov	r3, #1073758208
 201 0026 1A70     		strb	r2, [r3]
 235:Generated_Source\PSoC5/cyfitter_cfg.c **** 	CY_SET_XTND_REG8((void CYFAR *)(CYREG_IMO_TR1), (CY_GET_XTND_REG8((void CYFAR *)CYREG_FLSHID_CUST_
 202              		.loc 1 235 0
 203 0028 0321     		movs	r1, #3
 204 002a 03F50073 		add	r3, r3, #512
 205 002e 1970     		strb	r1, [r3]
 236:Generated_Source\PSoC5/cyfitter_cfg.c **** 
 206              		.loc 1 236 0
 207 0030 1B4B     		ldr	r3, .L17+8
 208 0032 1B78     		ldrb	r3, [r3]	@ zero_extendqisi2
 209 0034 DBB2     		uxtb	r3, r3
 210 0036 1B49     		ldr	r1, .L17+12
 211 0038 0B70     		strb	r3, [r1]
 239:Generated_Source\PSoC5/cyfitter_cfg.c **** 
 212              		.loc 1 239 0
 213 003a 0024     		movs	r4, #0
ARM GAS  C:\Users\lthw148\AppData\Local\Temp\ccG32gH2.s 			page 10


 214 003c 1A4B     		ldr	r3, .L17+16
 215 003e 1C80     		strh	r4, [r3]	@ movhi
 242:Generated_Source\PSoC5/cyfitter_cfg.c **** 	CY_SET_XTND_REG16((void CYFAR *)(CYREG_FASTCLK_PLL_CFG0), 0x1251u);
 216              		.loc 1 242 0
 217 0040 03F21E23 		addw	r3, r3, #542
 218 0044 1A80     		strh	r2, [r3]	@ movhi
 243:Generated_Source\PSoC5/cyfitter_cfg.c **** 	/* Wait up to 250us for the PLL to lock */
 219              		.loc 1 243 0
 220 0046 41F25122 		movw	r2, #4689
 221 004a 023B     		subs	r3, r3, #2
 222 004c 1A80     		strh	r2, [r3]	@ movhi
 223              	.LVL16:
 246:Generated_Source\PSoC5/cyfitter_cfg.c **** 	{ 
 224              		.loc 1 246 0
 225 004e 0CE0     		b	.L13
 226              	.LVL17:
 227              	.L15:
 248:Generated_Source\PSoC5/cyfitter_cfg.c **** 		CyDelayCycles(10u * 48u); /* Delay 10us based on 48MHz clock */
 228              		.loc 1 248 0 discriminator 4
 229 0050 164B     		ldr	r3, .L17+20
 230 0052 1B78     		ldrb	r3, [r3]	@ zero_extendqisi2
 231 0054 03F00103 		and	r3, r3, #1
 232 0058 43EA4404 		orr	r4, r3, r4, lsl #1
 233              	.LVL18:
 234 005c 04F00304 		and	r4, r4, #3
 235              	.LVL19:
 249:Generated_Source\PSoC5/cyfitter_cfg.c **** 	}
 236              		.loc 1 249 0 discriminator 4
 237 0060 4FF4F070 		mov	r0, #480
 238 0064 FFF7FEFF 		bl	CyDelayCycles
 239              	.LVL20:
 246:Generated_Source\PSoC5/cyfitter_cfg.c **** 	{ 
 240              		.loc 1 246 0 discriminator 4
 241 0068 013D     		subs	r5, r5, #1
 242              	.LVL21:
 243              	.L13:
 246:Generated_Source\PSoC5/cyfitter_cfg.c **** 	{ 
 244              		.loc 1 246 0 is_stmt 0 discriminator 1
 245 006a 0DB1     		cbz	r5, .L14
 246:Generated_Source\PSoC5/cyfitter_cfg.c **** 	{ 
 246              		.loc 1 246 0 discriminator 3
 247 006c 032C     		cmp	r4, #3
 248 006e EFD1     		bne	.L15
 249              	.L14:
 251:Generated_Source\PSoC5/cyfitter_cfg.c **** 	CY_SET_XTND_REG8((void CYFAR *)(CYREG_CLKDIST_BCFG0), 0x00u);
 250              		.loc 1 251 0 is_stmt 1
 251 0070 0D4B     		ldr	r3, .L17+16
 252 0072 0722     		movs	r2, #7
 253 0074 1A70     		strb	r2, [r3]
 252:Generated_Source\PSoC5/cyfitter_cfg.c **** 	CY_SET_XTND_REG8((void CYFAR *)(CYREG_CLKDIST_BCFG2), 0x48u);
 254              		.loc 1 252 0
 255 0076 0022     		movs	r2, #0
 256 0078 0D49     		ldr	r1, .L17+24
 257 007a 0A70     		strb	r2, [r1]
 253:Generated_Source\PSoC5/cyfitter_cfg.c **** 	CY_SET_XTND_REG8((void CYFAR *)(CYREG_CLKDIST_MSTR0), 0x00u);
 258              		.loc 1 253 0
 259 007c 4820     		movs	r0, #72
ARM GAS  C:\Users\lthw148\AppData\Local\Temp\ccG32gH2.s 			page 11


 260 007e 0231     		adds	r1, r1, #2
 261 0080 0870     		strb	r0, [r1]
 254:Generated_Source\PSoC5/cyfitter_cfg.c **** 	CY_SET_XTND_REG8((void CYFAR *)(CYREG_CLKDIST_LD), 0x02u);
 262              		.loc 1 254 0
 263 0082 1A70     		strb	r2, [r3]
 255:Generated_Source\PSoC5/cyfitter_cfg.c **** 
 264              		.loc 1 255 0
 265 0084 0222     		movs	r2, #2
 266 0086 033B     		subs	r3, r3, #3
 267 0088 1A70     		strb	r2, [r3]
 257:Generated_Source\PSoC5/cyfitter_cfg.c **** }
 268              		.loc 1 257 0
 269 008a 0A4A     		ldr	r2, .L17+28
 270 008c 1378     		ldrb	r3, [r2]	@ zero_extendqisi2
 271 008e 43F00303 		orr	r3, r3, #3
 272 0092 1370     		strb	r3, [r2]
 273 0094 38BD     		pop	{r3, r4, r5, pc}
 274              	.LVL22:
 275              	.L18:
 276 0096 00BF     		.align	2
 277              	.L17:
 278 0098 80400040 		.word	1073758336
 279 009c 86400040 		.word	1073758342
 280 00a0 08010049 		.word	1224737032
 281 00a4 A1460040 		.word	1073759905
 282 00a8 04400040 		.word	1073758212
 283 00ac 25420040 		.word	1073758757
 284 00b0 06400040 		.word	1073758214
 285 00b4 A2430040 		.word	1073759138
 286              		.cfi_endproc
 287              	.LFE4:
 288              		.size	ClockSetup, .-ClockSetup
 289              		.section	.text.CYCONFIGCPY,"ax",%progbits
 290              		.align	2
 291              		.thumb
 292              		.thumb_func
 293              		.type	CYCONFIGCPY, %function
 294              	CYCONFIGCPY:
 295              	.LFB1:
  83:Generated_Source\PSoC5/cyfitter_cfg.c **** 	(void)memcpy(dest, src, n);
 296              		.loc 1 83 0
 297              		.cfi_startproc
 298              		@ args = 0, pretend = 0, frame = 0
 299              		@ frame_needed = 0, uses_anonymous_args = 0
 300              	.LVL23:
 301 0000 08B5     		push	{r3, lr}
 302              		.cfi_def_cfa_offset 8
 303              		.cfi_offset 3, -8
 304              		.cfi_offset 14, -4
  84:Generated_Source\PSoC5/cyfitter_cfg.c **** }
 305              		.loc 1 84 0
 306 0002 FFF7FEFF 		bl	memcpy
 307              	.LVL24:
 308 0006 08BD     		pop	{r3, pc}
 309              		.cfi_endproc
 310              	.LFE1:
 311              		.size	CYCONFIGCPY, .-CYCONFIGCPY
ARM GAS  C:\Users\lthw148\AppData\Local\Temp\ccG32gH2.s 			page 12


 312              		.section	.text.SetAnalogRoutingPumps,"ax",%progbits
 313              		.align	2
 314              		.global	SetAnalogRoutingPumps
 315              		.thumb
 316              		.thumb_func
 317              		.type	SetAnalogRoutingPumps, %function
 318              	SetAnalogRoutingPumps:
 319              	.LFB6:
 286:Generated_Source\PSoC5/cyfitter_cfg.c **** }
 287:Generated_Source\PSoC5/cyfitter_cfg.c **** 
 288:Generated_Source\PSoC5/cyfitter_cfg.c **** 
 289:Generated_Source\PSoC5/cyfitter_cfg.c **** /*******************************************************************************
 290:Generated_Source\PSoC5/cyfitter_cfg.c **** * Function Name: SetAnalogRoutingPumps
 291:Generated_Source\PSoC5/cyfitter_cfg.c **** ********************************************************************************
 292:Generated_Source\PSoC5/cyfitter_cfg.c **** *
 293:Generated_Source\PSoC5/cyfitter_cfg.c **** * Summary:
 294:Generated_Source\PSoC5/cyfitter_cfg.c **** * Enables or disables the analog pumps feeding analog routing switches.
 295:Generated_Source\PSoC5/cyfitter_cfg.c **** * Intended to be called at startup, based on the Vdda system configuration;
 296:Generated_Source\PSoC5/cyfitter_cfg.c **** * may be called during operation when the user informs us that the Vdda voltage
 297:Generated_Source\PSoC5/cyfitter_cfg.c **** * crossed the pump threshold.
 298:Generated_Source\PSoC5/cyfitter_cfg.c **** *
 299:Generated_Source\PSoC5/cyfitter_cfg.c **** * Parameters:
 300:Generated_Source\PSoC5/cyfitter_cfg.c **** *  enabled - 1 to enable the pumps, 0 to disable the pumps
 301:Generated_Source\PSoC5/cyfitter_cfg.c **** *
 302:Generated_Source\PSoC5/cyfitter_cfg.c **** * Return:
 303:Generated_Source\PSoC5/cyfitter_cfg.c **** *  void
 304:Generated_Source\PSoC5/cyfitter_cfg.c **** *
 305:Generated_Source\PSoC5/cyfitter_cfg.c **** *******************************************************************************/
 306:Generated_Source\PSoC5/cyfitter_cfg.c **** void SetAnalogRoutingPumps(uint8 enabled)
 307:Generated_Source\PSoC5/cyfitter_cfg.c **** {
 320              		.loc 1 307 0
 321              		.cfi_startproc
 322              		@ args = 0, pretend = 0, frame = 0
 323              		@ frame_needed = 0, uses_anonymous_args = 0
 324              		@ link register save eliminated.
 325              	.LVL25:
 308:Generated_Source\PSoC5/cyfitter_cfg.c **** 	uint8 regValue = CY_GET_XTND_REG8((void CYFAR *)CYREG_PUMP_CR0);
 326              		.loc 1 308 0
 327 0000 024A     		ldr	r2, .L22
 328 0002 1378     		ldrb	r3, [r2]	@ zero_extendqisi2
 329 0004 DBB2     		uxtb	r3, r3
 330              	.LVL26:
 309:Generated_Source\PSoC5/cyfitter_cfg.c **** 	if (enabled != 0u)
 310:Generated_Source\PSoC5/cyfitter_cfg.c **** 	{
 311:Generated_Source\PSoC5/cyfitter_cfg.c **** 		regValue |= 0x00u;
 312:Generated_Source\PSoC5/cyfitter_cfg.c **** 	}
 313:Generated_Source\PSoC5/cyfitter_cfg.c **** 	else
 314:Generated_Source\PSoC5/cyfitter_cfg.c **** 	{
 315:Generated_Source\PSoC5/cyfitter_cfg.c **** 		regValue &= (uint8)~0x00u;
 316:Generated_Source\PSoC5/cyfitter_cfg.c **** 	}
 317:Generated_Source\PSoC5/cyfitter_cfg.c **** 	CY_SET_XTND_REG8((void CYFAR *)CYREG_PUMP_CR0, regValue);
 331              		.loc 1 317 0
 332 0006 1370     		strb	r3, [r2]
 333 0008 7047     		bx	lr
 334              	.L23:
 335 000a 00BF     		.align	2
 336              	.L22:
ARM GAS  C:\Users\lthw148\AppData\Local\Temp\ccG32gH2.s 			page 13


 337 000c 76580040 		.word	1073764470
 338              		.cfi_endproc
 339              	.LFE6:
 340              		.size	SetAnalogRoutingPumps, .-SetAnalogRoutingPumps
 341              		.section	.text.cyfitter_cfg,"ax",%progbits
 342              		.align	2
 343              		.global	cyfitter_cfg
 344              		.thumb
 345              		.thumb_func
 346              		.type	cyfitter_cfg, %function
 347              	cyfitter_cfg:
 348              	.LFB7:
 318:Generated_Source\PSoC5/cyfitter_cfg.c **** }
 319:Generated_Source\PSoC5/cyfitter_cfg.c **** 
 320:Generated_Source\PSoC5/cyfitter_cfg.c **** 
 321:Generated_Source\PSoC5/cyfitter_cfg.c **** 
 322:Generated_Source\PSoC5/cyfitter_cfg.c **** 
 323:Generated_Source\PSoC5/cyfitter_cfg.c **** /*******************************************************************************
 324:Generated_Source\PSoC5/cyfitter_cfg.c **** * Function Name: cyfitter_cfg
 325:Generated_Source\PSoC5/cyfitter_cfg.c **** ********************************************************************************
 326:Generated_Source\PSoC5/cyfitter_cfg.c **** * Summary:
 327:Generated_Source\PSoC5/cyfitter_cfg.c **** *  This function is called by the start-up code for the selected device. It
 328:Generated_Source\PSoC5/cyfitter_cfg.c **** *  performs all of the necessary device configuration based on the design
 329:Generated_Source\PSoC5/cyfitter_cfg.c **** *  settings.  This includes settings from the Design Wide Resources (DWR) such
 330:Generated_Source\PSoC5/cyfitter_cfg.c **** *  as Clocks and Pins as well as any component configuration that is necessary.
 331:Generated_Source\PSoC5/cyfitter_cfg.c **** *
 332:Generated_Source\PSoC5/cyfitter_cfg.c **** * Parameters:
 333:Generated_Source\PSoC5/cyfitter_cfg.c **** *   void
 334:Generated_Source\PSoC5/cyfitter_cfg.c **** *
 335:Generated_Source\PSoC5/cyfitter_cfg.c **** * Return:
 336:Generated_Source\PSoC5/cyfitter_cfg.c **** *   void
 337:Generated_Source\PSoC5/cyfitter_cfg.c **** *
 338:Generated_Source\PSoC5/cyfitter_cfg.c **** *******************************************************************************/
 339:Generated_Source\PSoC5/cyfitter_cfg.c **** 
 340:Generated_Source\PSoC5/cyfitter_cfg.c **** void cyfitter_cfg(void)
 341:Generated_Source\PSoC5/cyfitter_cfg.c **** {
 349              		.loc 1 341 0
 350              		.cfi_startproc
 351              		@ args = 0, pretend = 0, frame = 0
 352              		@ frame_needed = 0, uses_anonymous_args = 0
 353 0000 38B5     		push	{r3, r4, r5, lr}
 354              		.cfi_def_cfa_offset 16
 355              		.cfi_offset 3, -16
 356              		.cfi_offset 4, -12
 357              		.cfi_offset 5, -8
 358              		.cfi_offset 14, -4
 342:Generated_Source\PSoC5/cyfitter_cfg.c **** #ifdef CYGlobalIntDisable
 343:Generated_Source\PSoC5/cyfitter_cfg.c **** 	/* Disable interrupts by default. Let user enable if/when they want. */
 344:Generated_Source\PSoC5/cyfitter_cfg.c **** 	CYGlobalIntDisable
 359              		.loc 1 344 0
 360              		.syntax unified
 361              	@ 344 "Generated_Source\PSoC5\cyfitter_cfg.c" 1
 362 0002 72B6     		CPSID   i
 363              	@ 0 "" 2
 345:Generated_Source\PSoC5/cyfitter_cfg.c **** #endif
 346:Generated_Source\PSoC5/cyfitter_cfg.c **** 
 347:Generated_Source\PSoC5/cyfitter_cfg.c **** 	/* Enable/Disable Debug functionality based on settings from System DWR */
ARM GAS  C:\Users\lthw148\AppData\Local\Temp\ccG32gH2.s 			page 14


 348:Generated_Source\PSoC5/cyfitter_cfg.c **** 	CY_SET_XTND_REG8((void CYFAR *)CYREG_MLOGIC_DEBUG, (CY_GET_XTND_REG8((void CYFAR *)CYREG_MLOGIC_DE
 364              		.loc 1 348 0
 365              		.thumb
 366              		.syntax unified
 367 0004 284A     		ldr	r2, .L28
 368 0006 1378     		ldrb	r3, [r2]	@ zero_extendqisi2
 369 0008 43F00403 		orr	r3, r3, #4
 370 000c 1370     		strb	r3, [r2]
 371              	.LVL27:
 372              	.LBB3:
 349:Generated_Source\PSoC5/cyfitter_cfg.c **** 
 350:Generated_Source\PSoC5/cyfitter_cfg.c **** 	{
 351:Generated_Source\PSoC5/cyfitter_cfg.c **** 
 352:Generated_Source\PSoC5/cyfitter_cfg.c **** 		CYPACKED typedef struct {
 353:Generated_Source\PSoC5/cyfitter_cfg.c **** 			void CYFAR *address;
 354:Generated_Source\PSoC5/cyfitter_cfg.c **** 			uint16 size;
 355:Generated_Source\PSoC5/cyfitter_cfg.c **** 		} CYPACKED_ATTR cfg_memset_t;
 356:Generated_Source\PSoC5/cyfitter_cfg.c **** 
 357:Generated_Source\PSoC5/cyfitter_cfg.c **** 		static const cfg_memset_t CYCODE cfg_memset_list[] = {
 358:Generated_Source\PSoC5/cyfitter_cfg.c **** 			/* address, size */
 359:Generated_Source\PSoC5/cyfitter_cfg.c **** 			{(void CYFAR *)(CYREG_TMR0_CFG0), 24u},
 360:Generated_Source\PSoC5/cyfitter_cfg.c **** 			{(void CYFAR *)(CYREG_PRT0_DR), 16u},
 361:Generated_Source\PSoC5/cyfitter_cfg.c **** 			{(void CYFAR *)(CYREG_PRT3_DR), 64u},
 362:Generated_Source\PSoC5/cyfitter_cfg.c **** 			{(void CYFAR *)(CYREG_PRT12_DR), 16u},
 363:Generated_Source\PSoC5/cyfitter_cfg.c **** 			{(void CYFAR *)(CYREG_PRT15_DR), 16u},
 364:Generated_Source\PSoC5/cyfitter_cfg.c **** 			{(void CYFAR *)(CYDEV_UCFG_B0_P0_U0_BASE), 4096u},
 365:Generated_Source\PSoC5/cyfitter_cfg.c **** 			{(void CYFAR *)(CYDEV_UCFG_B1_P2_U0_BASE), 2048u},
 366:Generated_Source\PSoC5/cyfitter_cfg.c **** 			{(void CYFAR *)(CYDEV_UCFG_DSI0_BASE), 2560u},
 367:Generated_Source\PSoC5/cyfitter_cfg.c **** 			{(void CYFAR *)(CYDEV_UCFG_DSI12_BASE), 512u},
 368:Generated_Source\PSoC5/cyfitter_cfg.c **** 			{(void CYFAR *)(CYREG_BCTL0_MDCLK_EN), 32u},
 369:Generated_Source\PSoC5/cyfitter_cfg.c **** 		};
 370:Generated_Source\PSoC5/cyfitter_cfg.c **** 
 371:Generated_Source\PSoC5/cyfitter_cfg.c **** 		uint8 CYDATA i;
 372:Generated_Source\PSoC5/cyfitter_cfg.c **** 
 373:Generated_Source\PSoC5/cyfitter_cfg.c **** 		/* Zero out critical memory blocks before beginning configuration */
 374:Generated_Source\PSoC5/cyfitter_cfg.c **** 		for (i = 0u; i < (sizeof(cfg_memset_list)/sizeof(cfg_memset_list[0])); i++)
 373              		.loc 1 374 0
 374 000e 0024     		movs	r4, #0
 375 0010 0CE0     		b	.L25
 376              	.LVL28:
 377              	.L26:
 378              	.LBB4:
 375:Generated_Source\PSoC5/cyfitter_cfg.c **** 		{
 376:Generated_Source\PSoC5/cyfitter_cfg.c **** 			const cfg_memset_t CYCODE * CYDATA ms = &cfg_memset_list[i];
 377:Generated_Source\PSoC5/cyfitter_cfg.c **** 			CYMEMZERO(ms->address, (size_t)(uint32)(ms->size));
 379              		.loc 1 377 0 discriminator 3
 380 0012 264D     		ldr	r5, .L28+4
 381 0014 6300     		lsls	r3, r4, #1
 382 0016 1919     		adds	r1, r3, r4
 383 0018 4A00     		lsls	r2, r1, #1
 384 001a 1146     		mov	r1, r2
 385 001c 2A44     		add	r2, r2, r5
 386 001e 0846     		mov	r0, r1
 387 0020 9188     		ldrh	r1, [r2, #4]
 388 0022 2858     		ldr	r0, [r5, r0]	@ unaligned
 389 0024 FFF7FEFF 		bl	CYMEMZERO
 390              	.LVL29:
ARM GAS  C:\Users\lthw148\AppData\Local\Temp\ccG32gH2.s 			page 15


 391              	.LBE4:
 374:Generated_Source\PSoC5/cyfitter_cfg.c **** 		{
 392              		.loc 1 374 0 discriminator 3
 393 0028 0134     		adds	r4, r4, #1
 394              	.LVL30:
 395 002a E4B2     		uxtb	r4, r4
 396              	.LVL31:
 397              	.L25:
 374:Generated_Source\PSoC5/cyfitter_cfg.c **** 		{
 398              		.loc 1 374 0 is_stmt 0 discriminator 1
 399 002c 092C     		cmp	r4, #9
 400 002e F0D9     		bls	.L26
 378:Generated_Source\PSoC5/cyfitter_cfg.c **** 		}
 379:Generated_Source\PSoC5/cyfitter_cfg.c **** 
 380:Generated_Source\PSoC5/cyfitter_cfg.c **** 		cfg_write_bytes32(cy_cfg_addr_table, cy_cfg_data_table);
 401              		.loc 1 380 0 is_stmt 1
 402 0030 1F49     		ldr	r1, .L28+8
 403 0032 4FF09040 		mov	r0, #1207959552
 404 0036 FFF7FEFF 		bl	cfg_write_bytes32
 405              	.LVL32:
 381:Generated_Source\PSoC5/cyfitter_cfg.c **** 
 382:Generated_Source\PSoC5/cyfitter_cfg.c **** 		/* Enable digital routing */
 383:Generated_Source\PSoC5/cyfitter_cfg.c **** 		CY_SET_XTND_REG8((void CYFAR *)CYREG_BCTL0_BANK_CTL, CY_GET_XTND_REG8((void CYFAR *)CYREG_BCTL0_B
 406              		.loc 1 383 0
 407 003a 1E4A     		ldr	r2, .L28+12
 408 003c 1378     		ldrb	r3, [r2]	@ zero_extendqisi2
 409 003e 43F00203 		orr	r3, r3, #2
 410 0042 1370     		strb	r3, [r2]
 384:Generated_Source\PSoC5/cyfitter_cfg.c **** 		CY_SET_XTND_REG8((void CYFAR *)CYREG_BCTL1_BANK_CTL, CY_GET_XTND_REG8((void CYFAR *)CYREG_BCTL1_B
 411              		.loc 1 384 0
 412 0044 1032     		adds	r2, r2, #16
 413 0046 1378     		ldrb	r3, [r2]	@ zero_extendqisi2
 414 0048 43F00203 		orr	r3, r3, #2
 415 004c 1370     		strb	r3, [r2]
 385:Generated_Source\PSoC5/cyfitter_cfg.c **** 
 386:Generated_Source\PSoC5/cyfitter_cfg.c **** 		/* Enable UDB array */
 387:Generated_Source\PSoC5/cyfitter_cfg.c **** 		CY_SET_XTND_REG8((void CYFAR *)CYREG_PM_ACT_CFG0, CY_GET_XTND_REG8((void CYFAR *)CYREG_PM_ACT_CFG
 416              		.loc 1 387 0
 417 004e 1A4C     		ldr	r4, .L28+16
 418              	.LVL33:
 419 0050 2378     		ldrb	r3, [r4]	@ zero_extendqisi2
 420 0052 43F04003 		orr	r3, r3, #64
 421 0056 2370     		strb	r3, [r4]
 388:Generated_Source\PSoC5/cyfitter_cfg.c **** 		CY_SET_XTND_REG8((void CYFAR *)CYREG_PM_AVAIL_CR2, CY_GET_XTND_REG8((void CYFAR *)CYREG_PM_AVAIL_
 422              		.loc 1 388 0
 423 0058 A2F58632 		sub	r2, r2, #68608
 424 005c 513A     		subs	r2, r2, #81
 425 005e 1378     		ldrb	r3, [r2]	@ zero_extendqisi2
 426 0060 43F01003 		orr	r3, r3, #16
 427 0064 1370     		strb	r3, [r2]
 428              	.LBE3:
 389:Generated_Source\PSoC5/cyfitter_cfg.c **** 	}
 390:Generated_Source\PSoC5/cyfitter_cfg.c **** 
 391:Generated_Source\PSoC5/cyfitter_cfg.c **** 
 392:Generated_Source\PSoC5/cyfitter_cfg.c **** 	/* Perform second pass device configuration. These items must be configured in specific order afte
 393:Generated_Source\PSoC5/cyfitter_cfg.c **** 	CYCONFIGCPY((void CYFAR *)(CYREG_PRT1_DM0), (const void CYFAR *)(BS_IOPINS0_1_VAL), 8u);
 429              		.loc 1 393 0
ARM GAS  C:\Users\lthw148\AppData\Local\Temp\ccG32gH2.s 			page 16


 430 0066 0822     		movs	r2, #8
 431 0068 1449     		ldr	r1, .L28+20
 432 006a 1548     		ldr	r0, .L28+24
 433 006c FFF7FEFF 		bl	CYCONFIGCPY
 434              	.LVL34:
 394:Generated_Source\PSoC5/cyfitter_cfg.c **** 	CYCONFIGCPY((void CYFAR *)(CYREG_PRT2_DM0), (const void CYFAR *)(BS_IOPINS0_2_VAL), 8u);
 435              		.loc 1 394 0
 436 0070 0822     		movs	r2, #8
 437 0072 1449     		ldr	r1, .L28+28
 438 0074 1448     		ldr	r0, .L28+32
 439 0076 FFF7FEFF 		bl	CYCONFIGCPY
 440              	.LVL35:
 395:Generated_Source\PSoC5/cyfitter_cfg.c **** 	/* Switch Boost to the precision bandgap reference from its internal reference */
 396:Generated_Source\PSoC5/cyfitter_cfg.c **** 	CY_SET_REG8((void CYXDATA *)CYREG_BOOST_CR2, (CY_GET_REG8((void CYXDATA *)CYREG_BOOST_CR2) | 0x08u
 441              		.loc 1 396 0
 442 007a 144A     		ldr	r2, .L28+36
 443 007c 1378     		ldrb	r3, [r2]	@ zero_extendqisi2
 444 007e 43F00803 		orr	r3, r3, #8
 445 0082 1370     		strb	r3, [r2]
 397:Generated_Source\PSoC5/cyfitter_cfg.c **** 
 398:Generated_Source\PSoC5/cyfitter_cfg.c **** 	/* Set Flash Cycles based on max possible frequency in case a glitch occurs during ClockSetup(). *
 399:Generated_Source\PSoC5/cyfitter_cfg.c **** 	CY_SET_XTND_REG8((void CYFAR *)(CYREG_CACHE_CC_CTL), (((CYDEV_INSTRUCT_CACHE_ENABLED) != 0) ? 0x61
 446              		.loc 1 399 0
 447 0084 124D     		ldr	r5, .L28+40
 448 0086 6123     		movs	r3, #97
 449 0088 2B70     		strb	r3, [r5]
 400:Generated_Source\PSoC5/cyfitter_cfg.c **** 	/* Setup clocks based on selections from Clock DWR */
 401:Generated_Source\PSoC5/cyfitter_cfg.c **** 	ClockSetup();
 450              		.loc 1 401 0
 451 008a FFF7FEFF 		bl	ClockSetup
 452              	.LVL36:
 402:Generated_Source\PSoC5/cyfitter_cfg.c **** 	/* Set Flash Cycles based on newly configured 3.00MHz Bus Clock. */
 403:Generated_Source\PSoC5/cyfitter_cfg.c **** 	CY_SET_XTND_REG8((void CYFAR *)(CYREG_CACHE_CC_CTL), (((CYDEV_INSTRUCT_CACHE_ENABLED) != 0) ? 0x41
 453              		.loc 1 403 0
 454 008e 4123     		movs	r3, #65
 455 0090 2B70     		strb	r3, [r5]
 404:Generated_Source\PSoC5/cyfitter_cfg.c **** 	CY_SET_XTND_REG8((void CYFAR *)(CYREG_PANTHER_WAITPIPE), 0x01u);
 456              		.loc 1 404 0
 457 0092 0122     		movs	r2, #1
 458 0094 0F4B     		ldr	r3, .L28+44
 459 0096 1A70     		strb	r2, [r3]
 405:Generated_Source\PSoC5/cyfitter_cfg.c **** 
 406:Generated_Source\PSoC5/cyfitter_cfg.c **** 	/* Perform basic analog initialization to defaults */
 407:Generated_Source\PSoC5/cyfitter_cfg.c **** 	AnalogSetDefault();
 460              		.loc 1 407 0
 461 0098 FFF7FEFF 		bl	AnalogSetDefault
 462              	.LVL37:
 408:Generated_Source\PSoC5/cyfitter_cfg.c **** 
 409:Generated_Source\PSoC5/cyfitter_cfg.c **** 	/* Configure alternate active mode */
 410:Generated_Source\PSoC5/cyfitter_cfg.c **** 	CYCONFIGCPY((void CYFAR *)CYDEV_PM_STBY_BASE, (const void CYFAR *)CYDEV_PM_ACT_BASE, 14u);
 463              		.loc 1 410 0
 464 009c 0E22     		movs	r2, #14
 465 009e 2146     		mov	r1, r4
 466 00a0 0D48     		ldr	r0, .L28+48
 467 00a2 FFF7FEFF 		bl	CYCONFIGCPY
 468              	.LVL38:
 469 00a6 38BD     		pop	{r3, r4, r5, pc}
ARM GAS  C:\Users\lthw148\AppData\Local\Temp\ccG32gH2.s 			page 17


 470              	.L29:
 471              		.align	2
 472              	.L28:
 473 00a8 E8460040 		.word	1073759976
 474 00ac 00000000 		.word	.LANCHOR0
 475 00b0 18000048 		.word	1207959576
 476 00b4 03500140 		.word	1073827843
 477 00b8 A0430040 		.word	1073759136
 478 00bc 4C000048 		.word	1207959628
 479 00c0 12510040 		.word	1073762578
 480 00c4 54000048 		.word	1207959636
 481 00c8 22510040 		.word	1073762594
 482 00cc 22430040 		.word	1073759010
 483 00d0 00480040 		.word	1073760256
 484 00d4 04000840 		.word	1074266116
 485 00d8 B0430040 		.word	1073759152
 486              		.cfi_endproc
 487              	.LFE7:
 488              		.size	cyfitter_cfg, .-cyfitter_cfg
 489              		.section	.rodata
 490              		.align	2
 491              		.set	.LANCHOR0,. + 0
 492              		.type	cfg_memset_list.5007, %object
 493              		.size	cfg_memset_list.5007, 60
 494              	cfg_memset_list.5007:
 495 0000 004F0040 		.word	1073762048
 496 0004 1800     		.short	24
 497 0006 00510040 		.4byte	1073762560
 498 000a 1000     		.short	16
 499 000c 30510040 		.word	1073762608
 500 0010 4000     		.short	64
 501 0012 C0510040 		.4byte	1073762752
 502 0016 1000     		.short	16
 503 0018 F0510040 		.word	1073762800
 504 001c 1000     		.short	16
 505 001e 00000140 		.4byte	1073807360
 506 0022 0010     		.short	4096
 507 0024 00140140 		.word	1073812480
 508 0028 0008     		.short	2048
 509 002a 00400140 		.4byte	1073823744
 510 002e 000A     		.short	2560
 511 0030 004C0140 		.word	1073826816
 512 0034 0002     		.short	512
 513 0036 00500140 		.4byte	1073827840
 514 003a 2000     		.short	32
 515              		.text
 516              	.Letext0:
 517              		.file 2 "c:\\program files (x86)\\cypress\\psoc creator\\4.2\\psoc creator\\import\\gnu\\arm\\5.4.
 518              		.file 3 "Generated_Source\\PSoC5\\cytypes.h"
 519              		.file 4 "Generated_Source\\PSoC5\\CyLib.h"