ARM GAS  C:\Users\lthw148\AppData\Local\Temp\ccHkNuyE.s 			page 1


   1              		.syntax unified
   2              		.cpu cortex-m3
   3              		.fpu softvfp
   4              		.eabi_attribute 20, 1
   5              		.eabi_attribute 21, 1
   6              		.eabi_attribute 23, 3
   7              		.eabi_attribute 24, 1
   8              		.eabi_attribute 25, 1
   9              		.eabi_attribute 26, 1
  10              		.eabi_attribute 30, 1
  11              		.eabi_attribute 34, 1
  12              		.eabi_attribute 18, 4
  13              		.thumb
  14              		.syntax unified
  15              		.file	"main.c"
  16              		.text
  17              	.Ltext0:
  18              		.cfi_sections	.debug_frame
  19              		.section	.text.MyISR1,"ax",%progbits
  20              		.align	2
  21              		.global	MyISR1
  22              		.thumb
  23              		.thumb_func
  24              		.type	MyISR1, %function
  25              	MyISR1:
  26              	.LFB63:
  27              		.file 1 "main.c"
   1:main.c        **** 
   2:main.c        **** /* ========================================
   3:main.c        ****  * Laboratory Exercise 3
   4:main.c        ****  *
   5:main.c        ****  * Program timer to flash LED at 1Hz, use interrupts
   6:main.c        ****  *
   7:main.c        ****  * Copyright Univ of Auckland, 2016
   8:main.c        ****  * All Rights Reserved
   9:main.c        ****  * UNPUBLISHED, LICENSED SOFTWARE.
  10:main.c        ****  *
  11:main.c        ****  * CONFIDENTIAL AND PROPRIETARY INFORMATION
  12:main.c        ****  * WHICH IS THE PROPERTY OF Univ of Auckland.
  13:main.c        ****  *
  14:main.c        ****  * ========================================
  15:main.c        **** */
  16:main.c        **** #include <project.h>
  17:main.c        **** #include <Timer_1.h>
  18:main.c        **** #include <Timer_2.h>
  19:main.c        **** #include <isr_TC1.h>
  20:main.c        **** #include <isr_TC2.h>
  21:main.c        **** #include <LED.h>
  22:main.c        **** #include <PIN_OUTPUT.h>
  23:main.c        **** #include <PIN_OUTPUT_2.h>
  24:main.c        **** 
  25:main.c        **** uint8 output_flag1 = 0;
  26:main.c        **** uint8 output_flag2 = 0;
  27:main.c        **** 
  28:main.c        **** CY_ISR(MyISR1){
  28              		.loc 1 28 0
  29              		.cfi_startproc
ARM GAS  C:\Users\lthw148\AppData\Local\Temp\ccHkNuyE.s 			page 2


  30              		@ args = 0, pretend = 0, frame = 0
  31              		@ frame_needed = 0, uses_anonymous_args = 0
  32 0000 08B5     		push	{r3, lr}
  33              		.cfi_def_cfa_offset 8
  34              		.cfi_offset 3, -8
  35              		.cfi_offset 14, -4
  29:main.c        ****     
  30:main.c        ****     uint8 datareg = PIN_OUTPUT_ReadDataReg();
  36              		.loc 1 30 0
  37 0002 FFF7FEFF 		bl	PIN_OUTPUT_ReadDataReg
  38              	.LVL0:
  31:main.c        ****     PIN_OUTPUT_Write(~datareg);
  39              		.loc 1 31 0
  40 0006 C043     		mvns	r0, r0
  41              	.LVL1:
  42 0008 C0B2     		uxtb	r0, r0
  43 000a FFF7FEFF 		bl	PIN_OUTPUT_Write
  44              	.LVL2:
  32:main.c        ****     
  33:main.c        ****     Timer_1_ReadStatusRegister();
  45              		.loc 1 33 0
  46 000e FFF7FEFF 		bl	Timer_1_ReadStatusRegister
  47              	.LVL3:
  48 0012 08BD     		pop	{r3, pc}
  49              		.cfi_endproc
  50              	.LFE63:
  51              		.size	MyISR1, .-MyISR1
  52              		.section	.text.MyISR2,"ax",%progbits
  53              		.align	2
  54              		.global	MyISR2
  55              		.thumb
  56              		.thumb_func
  57              		.type	MyISR2, %function
  58              	MyISR2:
  59              	.LFB64:
  34:main.c        ****     
  35:main.c        **** }
  36:main.c        **** 
  37:main.c        **** CY_ISR(MyISR2){
  60              		.loc 1 37 0
  61              		.cfi_startproc
  62              		@ args = 0, pretend = 0, frame = 0
  63              		@ frame_needed = 0, uses_anonymous_args = 0
  64 0000 08B5     		push	{r3, lr}
  65              		.cfi_def_cfa_offset 8
  66              		.cfi_offset 3, -8
  67              		.cfi_offset 14, -4
  38:main.c        ****     
  39:main.c        ****     uint8 datareg = PIN_OUTPUT_2_ReadDataReg();
  68              		.loc 1 39 0
  69 0002 FFF7FEFF 		bl	PIN_OUTPUT_2_ReadDataReg
  70              	.LVL4:
  40:main.c        ****     PIN_OUTPUT_2_Write(~datareg);
  71              		.loc 1 40 0
  72 0006 C043     		mvns	r0, r0
  73              	.LVL5:
  74 0008 C0B2     		uxtb	r0, r0
ARM GAS  C:\Users\lthw148\AppData\Local\Temp\ccHkNuyE.s 			page 3


  75 000a FFF7FEFF 		bl	PIN_OUTPUT_2_Write
  76              	.LVL6:
  41:main.c        ****     
  42:main.c        ****     
  43:main.c        ****     Timer_2_ReadStatusRegister();
  77              		.loc 1 43 0
  78 000e FFF7FEFF 		bl	Timer_2_ReadStatusRegister
  79              	.LVL7:
  80 0012 08BD     		pop	{r3, pc}
  81              		.cfi_endproc
  82              	.LFE64:
  83              		.size	MyISR2, .-MyISR2
  84              		.section	.text.main,"ax",%progbits
  85              		.align	2
  86              		.global	main
  87              		.thumb
  88              		.thumb_func
  89              		.type	main, %function
  90              	main:
  91              	.LFB65:
  44:main.c        ****     
  45:main.c        **** }
  46:main.c        **** 
  47:main.c        **** int main()
  48:main.c        **** {
  92              		.loc 1 48 0
  93              		.cfi_startproc
  94              		@ Volatile: function does not return.
  95              		@ args = 0, pretend = 0, frame = 0
  96              		@ frame_needed = 0, uses_anonymous_args = 0
  97 0000 08B5     		push	{r3, lr}
  98              		.cfi_def_cfa_offset 8
  99              		.cfi_offset 3, -8
 100              		.cfi_offset 14, -4
  49:main.c        ****     
  50:main.c        ****     Timer_1_Start();
 101              		.loc 1 50 0
 102 0002 FFF7FEFF 		bl	Timer_1_Start
 103              	.LVL8:
  51:main.c        ****     Timer_2_Start();
 104              		.loc 1 51 0
 105 0006 FFF7FEFF 		bl	Timer_2_Start
 106              	.LVL9:
  52:main.c        ****     CyGlobalIntEnable; /* Enable global interrupts. */
 107              		.loc 1 52 0
 108              		.syntax unified
 109              	@ 52 "main.c" 1
 110 000a 62B6     		CPSIE   i
 111              	@ 0 "" 2
  53:main.c        ****     
  54:main.c        ****     isr_TC1_StartEx(MyISR1);
 112              		.loc 1 54 0
 113              		.thumb
 114              		.syntax unified
 115 000c 0348     		ldr	r0, .L8
 116 000e FFF7FEFF 		bl	isr_TC1_StartEx
 117              	.LVL10:
ARM GAS  C:\Users\lthw148\AppData\Local\Temp\ccHkNuyE.s 			page 4


  55:main.c        ****     isr_TC2_StartEx(MyISR2);
 118              		.loc 1 55 0
 119 0012 0348     		ldr	r0, .L8+4
 120 0014 FFF7FEFF 		bl	isr_TC2_StartEx
 121              	.LVL11:
 122              	.L6:
 123 0018 FEE7     		b	.L6
 124              	.L9:
 125 001a 00BF     		.align	2
 126              	.L8:
 127 001c 00000000 		.word	MyISR1
 128 0020 00000000 		.word	MyISR2
 129              		.cfi_endproc
 130              	.LFE65:
 131              		.size	main, .-main
 132              		.global	output_flag2
 133              		.global	output_flag1
 134              		.bss
 135              		.type	output_flag2, %object
 136              		.size	output_flag2, 1
 137              	output_flag2:
 138 0000 00       		.space	1
 139              		.type	output_flag1, %object
 140              		.size	output_flag1, 1
 141              	output_flag1:
 142 0001 00       		.space	1
 143              		.text
 144              	.Letext0:
 145              		.file 2 "c:\\program files (x86)\\cypress\\psoc creator\\4.2\\psoc creator\\import\\gnu\\arm\\5.4.
 146              		.file 3 "c:\\program files (x86)\\cypress\\psoc creator\\4.2\\psoc creator\\import\\gnu\\arm\\5.4.
 147              		.file 4 "Generated_Source\\PSoC5/cytypes.h"
 148              		.file 5 "Generated_Source\\PSoC5/core_cm3.h"
 149              		.file 6 "Generated_Source\\PSoC5/PIN_OUTPUT.h"
 150              		.file 7 "Generated_Source\\PSoC5/Timer_1.h"
 151              		.file 8 "Generated_Source\\PSoC5/PIN_OUTPUT_2.h"
 152              		.file 9 "Generated_Source\\PSoC5/Timer_2.h"
 153              		.file 10 "Generated_Source\\PSoC5/isr_TC1.h"
 154              		.file 11 "Generated_Source\\PSoC5/isr_TC2.h"